target datalayout = "e-m:e-p270:32:32-p271:32:32-p272:64:64-i64:64-i128:128-f80:128-n8:16:32:64-S128"
target triple = "x86_64-pc-linux-gnu"

%union.imath_half_uif = type { i32 }
%"class.Imath_3_2::half" = type { i16 }

; Function Attrs: noinline noreturn nounwind uwtable
define linkonce_odr hidden void @__clang_call_terminate(ptr noundef %0) #10 comdat {
  %2 = call ptr @__cxa_begin_catch(ptr %0) #3
  call void @_ZSt9terminatev() #12
  unreachable
}

; Function Attrs: inlinehint mustprogress nounwind uwtable
define internal noundef zeroext i16 @_ZL19imath_float_to_halff(float noundef %0) #5 {
  %2 = alloca i16, align 2
  %3 = alloca float, align 4
  %4 = alloca %union.imath_half_uif, align 4
  %5 = alloca i16, align 2
  %6 = alloca i32, align 4
  %7 = alloca i32, align 4
  %8 = alloca i32, align 4
  %9 = alloca i32, align 4
  %10 = alloca i32, align 4
  %11 = alloca i32, align 4
  store float %0, ptr %3, align 4, !tbaa !8
  call void @llvm.lifetime.start.p0(i64 4, ptr %4) #3
  call void @llvm.lifetime.start.p0(i64 2, ptr %5) #3
  call void @llvm.lifetime.start.p0(i64 4, ptr %6) #3
  call void @llvm.lifetime.start.p0(i64 4, ptr %7) #3
  call void @llvm.lifetime.start.p0(i64 4, ptr %8) #3
  call void @llvm.lifetime.start.p0(i64 4, ptr %9) #3
  call void @llvm.lifetime.start.p0(i64 4, ptr %10) #3
  %12 = load float, ptr %3, align 4, !tbaa !8
  store float %12, ptr %4, align 4, !tbaa !25
  %13 = load i32, ptr %4, align 4, !tbaa !25
  %14 = and i32 %13, 2147483647
  store i32 %14, ptr %8, align 4, !tbaa !21
  %15 = load i32, ptr %4, align 4, !tbaa !25
  %16 = lshr i32 %15, 16
  %17 = and i32 %16, 32768
  %18 = trunc i32 %17 to i16
  store i16 %18, ptr %5, align 2, !tbaa !18
  %19 = load i32, ptr %8, align 4, !tbaa !21
  %20 = icmp uge i32 %19, 947912704
  br i1 %20, label %21, label %80

21:                                               ; preds = %1
  %22 = load i32, ptr %8, align 4, !tbaa !21
  %23 = icmp uge i32 %22, 2139095040
  %24 = zext i1 %23 to i64
  %25 = call i64 @llvm.expect.i64(i64 %24, i64 0)
  %26 = icmp ne i64 %25, 0
  br i1 %26, label %27, label %52

27:                                               ; preds = %21
  %28 = load i16, ptr %5, align 2, !tbaa !18
  %29 = zext i16 %28 to i32
  %30 = or i32 %29, 31744
  %31 = trunc i32 %30 to i16
  store i16 %31, ptr %5, align 2, !tbaa !18
  %32 = load i32, ptr %8, align 4, !tbaa !21
  %33 = icmp eq i32 %32, 2139095040
  br i1 %33, label %34, label %36

34:                                               ; preds = %27
  %35 = load i16, ptr %5, align 2, !tbaa !18
  store i16 %35, ptr %2, align 2
  store i32 1, ptr %11, align 4
  br label %119

36:                                               ; preds = %27
  %37 = load i32, ptr %8, align 4, !tbaa !21
  %38 = and i32 %37, 8388607
  %39 = lshr i32 %38, 13
  store i32 %39, ptr %7, align 4, !tbaa !21
  %40 = load i16, ptr %5, align 2, !tbaa !18
  %41 = zext i16 %40 to i32
  %42 = load i32, ptr %7, align 4, !tbaa !21
  %43 = trunc i32 %42 to i16
  %44 = zext i16 %43 to i32
  %45 = or i32 %41, %44
  %46 = load i32, ptr %7, align 4, !tbaa !21
  %47 = icmp eq i32 %46, 0
  %48 = zext i1 %47 to i16
  %49 = zext i16 %48 to i32
  %50 = or i32 %45, %49
  %51 = trunc i32 %50 to i16
  store i16 %51, ptr %2, align 2
  store i32 1, ptr %11, align 4
  br label %119

52:                                               ; preds = %21
  %53 = load i32, ptr %8, align 4, !tbaa !21
  %54 = icmp ugt i32 %53, 1199566847
  %55 = zext i1 %54 to i64
  %56 = call i64 @llvm.expect.i64(i64 %55, i64 0)
  %57 = icmp ne i64 %56, 0
  br i1 %57, label %58, label %63

58:                                               ; preds = %52
  %59 = load i16, ptr %5, align 2, !tbaa !18
  %60 = zext i16 %59 to i32
  %61 = or i32 %60, 31744
  %62 = trunc i32 %61 to i16
  store i16 %62, ptr %2, align 2
  store i32 1, ptr %11, align 4
  br label %119

63:                                               ; preds = %52
  %64 = load i32, ptr %8, align 4, !tbaa !21
  %65 = sub i32 %64, 939524096
  store i32 %65, ptr %8, align 4, !tbaa !21
  %66 = load i32, ptr %8, align 4, !tbaa !21
  %67 = add i32 %66, 4095
  %68 = load i32, ptr %8, align 4, !tbaa !21
  %69 = lshr i32 %68, 13
  %70 = and i32 %69, 1
  %71 = add i32 %67, %70
  %72 = lshr i32 %71, 13
  store i32 %72, ptr %8, align 4, !tbaa !21
  %73 = load i16, ptr %5, align 2, !tbaa !18
  %74 = zext i16 %73 to i32
  %75 = load i32, ptr %8, align 4, !tbaa !21
  %76 = trunc i32 %75 to i16
  %77 = zext i16 %76 to i32
  %78 = or i32 %74, %77
  %79 = trunc i32 %78 to i16
  store i16 %79, ptr %2, align 2
  store i32 1, ptr %11, align 4
  br label %119

80:                                               ; preds = %1
  %81 = load i32, ptr %8, align 4, !tbaa !21
  %82 = icmp ult i32 %81, 855638017
  br i1 %82, label %83, label %85

83:                                               ; preds = %80
  %84 = load i16, ptr %5, align 2, !tbaa !18
  store i16 %84, ptr %2, align 2
  store i32 1, ptr %11, align 4
  br label %119

85:                                               ; preds = %80
  %86 = load i32, ptr %8, align 4, !tbaa !21
  %87 = lshr i32 %86, 23
  store i32 %87, ptr %6, align 4, !tbaa !21
  %88 = load i32, ptr %6, align 4, !tbaa !21
  %89 = sub i32 126, %88
  store i32 %89, ptr %10, align 4, !tbaa !21
  %90 = load i32, ptr %8, align 4, !tbaa !21
  %91 = and i32 %90, 8388607
  %92 = or i32 8388608, %91
  store i32 %92, ptr %7, align 4, !tbaa !21
  %93 = load i32, ptr %7, align 4, !tbaa !21
  %94 = load i32, ptr %10, align 4, !tbaa !21
  %95 = sub i32 32, %94
  %96 = shl i32 %93, %95
  store i32 %96, ptr %9, align 4, !tbaa !21
  %97 = load i32, ptr %7, align 4, !tbaa !21
  %98 = load i32, ptr %10, align 4, !tbaa !21
  %99 = lshr i32 %97, %98
  %100 = load i16, ptr %5, align 2, !tbaa !18
  %101 = zext i16 %100 to i32
  %102 = or i32 %101, %99
  %103 = trunc i32 %102 to i16
  store i16 %103, ptr %5, align 2, !tbaa !18
  %104 = load i32, ptr %9, align 4, !tbaa !21
  %105 = icmp ugt i32 %104, -2147483648
  br i1 %105, label %114, label %106

106:                                              ; preds = %85
  %107 = load i32, ptr %9, align 4, !tbaa !21
  %108 = icmp eq i32 %107, -2147483648
  br i1 %108, label %109, label %117

109:                                              ; preds = %106
  %110 = load i16, ptr %5, align 2, !tbaa !18
  %111 = zext i16 %110 to i32
  %112 = and i32 %111, 1
  %113 = icmp ne i32 %112, 0
  br i1 %113, label %114, label %117

114:                                              ; preds = %109, %85
  %115 = load i16, ptr %5, align 2, !tbaa !18
  %116 = add i16 %115, 1
  store i16 %116, ptr %5, align 2, !tbaa !18
  br label %117

117:                                              ; preds = %114, %109, %106
  %118 = load i16, ptr %5, align 2, !tbaa !18
  store i16 %118, ptr %2, align 2
  store i32 1, ptr %11, align 4
  br label %119

119:                                              ; preds = %117, %83, %63, %58, %36, %34
  call void @llvm.lifetime.end.p0(i64 4, ptr %10) #3
  call void @llvm.lifetime.end.p0(i64 4, ptr %9) #3
  call void @llvm.lifetime.end.p0(i64 4, ptr %8) #3
  call void @llvm.lifetime.end.p0(i64 4, ptr %7) #3
  call void @llvm.lifetime.end.p0(i64 4, ptr %6) #3
  call void @llvm.lifetime.end.p0(i64 2, ptr %5) #3
  call void @llvm.lifetime.end.p0(i64 4, ptr %4) #3
  %120 = load i16, ptr %2, align 2
  ret i16 %120
}

; Function Attrs: inlinehint mustprogress nounwind uwtable
define linkonce_odr hidden void @_ZN9Imath_3_24halfC2Ef(ptr noundef nonnull align 2 dereferenceable(2) %0, float noundef %1) unnamed_addr #5 comdat align 2 personality ptr @__gxx_personality_v0 {
  %3 = alloca ptr, align 8
  %4 = alloca float, align 4
  store ptr %0, ptr %3, align 8, !tbaa !10
  store float %1, ptr %4, align 4, !tbaa !8
  %5 = load ptr, ptr %3, align 8
  %6 = getelementptr inbounds nuw %"class.Imath_3_2::half", ptr %5, i32 0, i32 0
  %7 = load float, ptr %4, align 4, !tbaa !8
  %8 = invoke noundef zeroext i16 @_ZL19imath_float_to_halff(float noundef %7)
          to label %9 unwind label %10

9:                                                ; preds = %2
  store i16 %8, ptr %6, align 2, !tbaa !12
  ret void

10:                                               ; preds = %2
  %11 = landingpad { ptr, i32 }
          catch ptr null
  %12 = extractvalue { ptr, i32 } %11, 0
  call void @__clang_call_terminate(ptr %12) #12
  unreachable
}

; Function Attrs: mustprogress uwtable
define available_externally noundef nonnull align 8 dereferenceable(16) ptr @_ZNSirsERf(ptr noundef nonnull align 8 dereferenceable(16) %0, ptr noundef nonnull align 4 dereferenceable(4) %1) #4 align 2 {
  %3 = alloca ptr, align 8
  %4 = alloca ptr, align 8
  store ptr %0, ptr %3, align 8, !tbaa !15
  store ptr %1, ptr %4, align 8, !tbaa !19
  %5 = load ptr, ptr %3, align 8
  %6 = load ptr, ptr %4, align 8, !tbaa !19
  %7 = call noundef nonnull align 8 dereferenceable(16) ptr @_ZNSi10_M_extractIfEERSiRT_(ptr noundef nonnull align 8 dereferenceable(16) %5, ptr noundef nonnull align 4 dereferenceable(4) %6)
  ret ptr %7
}

; Function Attrs: mustprogress uwtable
define noundef nonnull align 8 dereferenceable(16) ptr @_ZrsRSiRN9Imath_3_24halfE(ptr noundef nonnull align 8 dereferenceable(16) %0, ptr noundef nonnull align 2 dereferenceable(2) %1) #4 {
  %3 = alloca ptr, align 8
  %4 = alloca ptr, align 8
  %5 = alloca float, align 4
  %6 = alloca %"class.Imath_3_2::half", align 2
  store ptr %0, ptr %3, align 8, !tbaa !15
  store ptr %1, ptr %4, align 8, !tbaa !10
  call void @llvm.lifetime.start.p0(i64 4, ptr %5) #3
  %7 = load ptr, ptr %3, align 8, !tbaa !15
  %8 = call noundef nonnull align 8 dereferenceable(16) ptr @_ZNSirsERf(ptr noundef nonnull align 8 dereferenceable(16) %7, ptr noundef nonnull align 4 dereferenceable(4) %5)
  call void @llvm.lifetime.start.p0(i64 2, ptr %6) #3
  %9 = load float, ptr %5, align 4, !tbaa !8
  call void @_ZN9Imath_3_24halfC2Ef(ptr noundef nonnull align 2 dereferenceable(2) %6, float noundef %9) #3
  %10 = load ptr, ptr %4, align 8, !tbaa !10
  call void @llvm.memcpy.p0.p0.i64(ptr align 2 %10, ptr align 2 %6, i64 2, i1 false), !tbaa.struct !17
  call void @llvm.lifetime.end.p0(i64 2, ptr %6) #3
  %11 = load ptr, ptr %3, align 8, !tbaa !15
  call void @llvm.lifetime.end.p0(i64 4, ptr %5) #3
  ret ptr %11
}