; Function Attrs: mustprogress uwtable
define noundef nonnull align 8 dereferenceable(16) ptr @_ZrsRSiRN9Imath_3_24halfE(ptr noundef nonnull returned align 8 dereferenceable(16) %0, ptr noundef nonnull writeonly align 2 captures(none) dereferenceable(2) initializes((0, 2)) %1) local_unnamed_addr #3 personality ptr @__gxx_personality_v0 {
  %3 = alloca float, align 4
  call void @llvm.lifetime.start.p0(i64 4, ptr nonnull %3) #8
  %4 = call noundef nonnull align 8 dereferenceable(16) ptr @_ZNSi10_M_extractIfEERSiRT_(ptr noundef nonnull align 8 dereferenceable(16) %0, ptr noundef nonnull align 4 dereferenceable(4) %3)
  %5 = load float, ptr %3, align 4, !tbaa !9
  %6 = bitcast float %5 to i32
  %7 = call float @llvm.fabs.f32(float %5)
  %8 = bitcast float %7 to i32
  %9 = lshr i32 %6, 16
  %10 = trunc nuw i32 %9 to i16
  %11 = and i16 %10, -32768
  %12 = icmp samesign ugt i32 %8, 947912703
  br i1 %12, label %13, label %39

13:                                               ; preds = %2
  %14 = icmp samesign ugt i32 %8, 2139095039
  br i1 %14, label %15, label %26, !prof !11

15:                                               ; preds = %13
  %16 = or disjoint i16 %11, 31744
  %17 = icmp eq i32 %8, 2139095040
  br i1 %17, label %_ZN9Imath_3_24halfC2Ef.exit, label %18

18:                                               ; preds = %15
  %19 = lshr i32 %8, 13
  %20 = and i32 %19, 1023
  %21 = icmp eq i32 %20, 0
  %22 = zext i1 %21 to i16
  %23 = trunc nuw nsw i32 %20 to i16
  %24 = or i16 %23, %22
  %25 = or disjoint i16 %24, %16
  br label %_ZN9Imath_3_24halfC2Ef.exit

26:                                               ; preds = %13
  %27 = icmp samesign ugt i32 %8, 1199566847
  br i1 %27, label %28, label %30, !prof !11

28:                                               ; preds = %26
  %29 = or disjoint i16 %11, 31744
  br label %_ZN9Imath_3_24halfC2Ef.exit

30:                                               ; preds = %26
  %31 = add nuw nsw i32 %8, 134221823
  %32 = lshr i32 %8, 13
  %33 = and i32 %32, 1
  %34 = add nuw nsw i32 %31, %33
  %35 = lshr i32 %34, 13
  %36 = and i32 %9, 32768
  %37 = or i32 %35, %36
  %38 = trunc i32 %37 to i16
  br label %_ZN9Imath_3_24halfC2Ef.exit

39:                                               ; preds = %2
  %40 = icmp samesign ult i32 %8, 855638017
  br i1 %40, label %_ZN9Imath_3_24halfC2Ef.exit, label %41

41:                                               ; preds = %39
  %42 = lshr i32 %8, 23
  %43 = sub nuw nsw i32 126, %42
  %44 = and i32 %8, 8388607
  %45 = or disjoint i32 %44, 8388608
  %46 = add nsw i32 %42, -94
  %47 = shl i32 %45, %46
  %48 = lshr i32 %45, %43
  %49 = and i32 %9, 32768
  %50 = or i32 %48, %49
  %51 = trunc nuw i32 %50 to i16
  %52 = icmp ugt i32 %47, -2147483648
  br i1 %52, label %56, label %53

53:                                               ; preds = %41
  %54 = icmp ne i32 %47, -2147483648
  %55 = and i32 %48, 1
  %.not.i.i = icmp eq i32 %55, 0
  %or.cond.i.i = select i1 %54, i1 true, i1 %.not.i.i
  br i1 %or.cond.i.i, label %_ZN9Imath_3_24halfC2Ef.exit, label %56

56:                                               ; preds = %53, %41
  %57 = add nuw i16 %51, 1
  br label %_ZN9Imath_3_24halfC2Ef.exit

_ZN9Imath_3_24halfC2Ef.exit:                      ; preds = %15, %18, %28, %30, %39, %53, %56
  %.0.i.i = phi i16 [ %25, %18 ], [ %29, %28 ], [ %38, %30 ], [ %16, %15 ], [ %11, %39 ], [ %57, %56 ], [ %51, %53 ]
  store i16 %.0.i.i, ptr %1, align 2, !tbaa !12
  call void @llvm.lifetime.end.p0(i64 4, ptr nonnull %3) #8
  ret ptr %0
}